; Function Attrs: mustprogress nounwind uwtable
define void @_ZN5osgeo4proj3crs11CompoundCRSD2Ev(ptr noundef nonnull align 8 dereferenceable(80) %0) unnamed_addr #3 align 2 personality ptr @__gxx_personality_v0 {
  %2 = getelementptr inbounds i8, ptr %0, i64 72
  %3 = load ptr, ptr %2, align 8
  %.not.i = icmp eq ptr %3, null
  br i1 %.not.i, label %_ZNSt10unique_ptrIN5osgeo4proj3crs11CompoundCRS7PrivateESt14default_deleteIS4_EED2Ev.exit, label %4

4:                                                ; preds = %1
  tail call void @_ZNKSt14default_deleteIN5osgeo4proj3crs11CompoundCRS7PrivateEEclEPS4_(ptr noundef nonnull align 1 dereferenceable(1) %2, ptr noundef nonnull %3)
  br label %_ZNSt10unique_ptrIN5osgeo4proj3crs11CompoundCRS7PrivateESt14default_deleteIS4_EED2Ev.exit

_ZNSt10unique_ptrIN5osgeo4proj3crs11CompoundCRS7PrivateESt14default_deleteIS4_EED2Ev.exit: ; preds = %1, %4
  store ptr null, ptr %2, align 8
  %5 = getelementptr inbounds i8, ptr %0, i64 64
  tail call void @_ZN5osgeo4proj2io21IPROJStringExportableD2Ev(ptr noundef nonnull align 8 dereferenceable(8) %5) #37
  store ptr getelementptr inbounds inrange(-16, 48) ({ [8 x ptr], [5 x ptr], [5 x ptr], [5 x ptr] }, ptr @_ZTVN5osgeo4proj3crs3CRSE, i64 0, i32 0, i64 2), ptr %0, align 8
  %6 = getelementptr inbounds i8, ptr %0, i64 16
  store ptr getelementptr inbounds inrange(-16, 24) ({ [8 x ptr], [5 x ptr], [5 x ptr], [5 x ptr] }, ptr @_ZTVN5osgeo4proj3crs3CRSE, i64 0, i32 1, i64 2), ptr %6, align 8
  %7 = getelementptr inbounds i8, ptr %0, i64 24
  store ptr getelementptr inbounds inrange(-16, 24) ({ [8 x ptr], [5 x ptr], [5 x ptr], [5 x ptr] }, ptr @_ZTVN5osgeo4proj3crs3CRSE, i64 0, i32 2, i64 2), ptr %7, align 8
  %8 = getelementptr inbounds i8, ptr %0, i64 48
  store ptr getelementptr inbounds inrange(-16, 24) ({ [8 x ptr], [5 x ptr], [5 x ptr], [5 x ptr] }, ptr @_ZTVN5osgeo4proj3crs3CRSE, i64 0, i32 3, i64 2), ptr %8, align 8
  %9 = getelementptr inbounds i8, ptr %0, i64 56
  %10 = load ptr, ptr %9, align 8
  %.not.i.i = icmp eq ptr %10, null
  br i1 %.not.i.i, label %_ZN5osgeo4proj3crs3CRSD2Ev.exit, label %_ZNKSt14default_deleteIN5osgeo4proj3crs3CRS7PrivateEEclEPS4_.exit.i.i

_ZNKSt14default_deleteIN5osgeo4proj3crs3CRS7PrivateEEclEPS4_.exit.i.i: ; preds = %_ZNSt10unique_ptrIN5osgeo4proj3crs11CompoundCRS7PrivateESt14default_deleteIS4_EED2Ev.exit
  tail call void @_ZN5osgeo4proj3crs3CRS7PrivateD2Ev(ptr noundef nonnull align 8 dereferenceable(72) %10) #37
  tail call void @_ZdlPv(ptr noundef nonnull %10) #36
  br label %_ZN5osgeo4proj3crs3CRSD2Ev.exit

_ZN5osgeo4proj3crs3CRSD2Ev.exit:                  ; preds = %_ZNSt10unique_ptrIN5osgeo4proj3crs11CompoundCRS7PrivateESt14default_deleteIS4_EED2Ev.exit, %_ZNKSt14default_deleteIN5osgeo4proj3crs3CRS7PrivateEEclEPS4_.exit.i.i
  store ptr null, ptr %9, align 8
  tail call void @_ZN5osgeo4proj2io15IJSONExportableD2Ev(ptr noundef nonnull align 8 dereferenceable(8) %8) #37
  tail call void @_ZN5osgeo4proj6common11ObjectUsageD2Ev(ptr noundef nonnull align 8 dereferenceable(48) %0) #37
  ret void
}